target datalayout = "e-m:e-p270:32:32-p271:32:32-p272:64:64-i64:64-i128:128-f80:128-n8:16:32:64-S128"
target triple = "x86_64-pc-linux-gnu"

%struct.SDL_joylist_item = type { i32, ptr, ptr, %struct.SDL_GUID, i64, i32, ptr, ptr, i8, ptr }
%struct.SDL_GUID = type { [16 x i8] }

@SDL_joylist = internal global ptr null, align 8
@numjoysticks = internal global i32 0, align 4

; Function Attrs: nounwind uwtable
define internal ptr @GetJoystickByDevIndex(i32 noundef %0) #0 {
  %2 = alloca ptr, align 8
  %3 = alloca i32, align 4
  %4 = alloca ptr, align 8
  %5 = alloca i32, align 4
  store i32 %0, ptr %3, align 4
  call void @llvm.lifetime.start.p0(i64 8, ptr %4) #11
  call void @SDL_AssertJoysticksLocked()
  %6 = load i32, ptr %3, align 4
  %7 = icmp slt i32 %6, 0
  br i1 %7, label %12, label %8

8:                                                ; preds = %1
  %9 = load i32, ptr %3, align 4
  %10 = load i32, ptr @numjoysticks, align 4
  %11 = icmp sge i32 %9, %10
  br i1 %11, label %12, label %13

12:                                               ; preds = %8, %1
  store ptr null, ptr %2, align 8
  store i32 1, ptr %5, align 4
  br label %29

13:                                               ; preds = %8
  %14 = load ptr, ptr @SDL_joylist, align 8
  store ptr %14, ptr %4, align 8
  br label %15

15:                                               ; preds = %21, %13
  %16 = load i32, ptr %3, align 4
  %17 = icmp sgt i32 %16, 0
  br i1 %17, label %18, label %27

18:                                               ; preds = %15
  br label %19

19:                                               ; preds = %18
  br label %20

20:                                               ; preds = %19
  br label %21

21:                                               ; preds = %20
  %22 = load i32, ptr %3, align 4
  %23 = add nsw i32 %22, -1
  store i32 %23, ptr %3, align 4
  %24 = load ptr, ptr %4, align 8
  %25 = getelementptr inbounds nuw %struct.SDL_joylist_item, ptr %24, i32 0, i32 7
  %26 = load ptr, ptr %25, align 8
  store ptr %26, ptr %4, align 8
  br label %15, !llvm.loop !22

27:                                               ; preds = %15
  %28 = load ptr, ptr %4, align 8
  store ptr %28, ptr %2, align 8
  store i32 1, ptr %5, align 4
  br label %29

29:                                               ; preds = %27, %12
  call void @llvm.lifetime.end.p0(i64 8, ptr %4) #11
  %30 = load ptr, ptr %2, align 8
  ret ptr %30
}

; Function Attrs: nounwind uwtable
define internal { i64, i64 } @LINUX_JoystickGetDeviceGUID(i32 noundef %0) #0 {
  %2 = alloca %struct.SDL_GUID, align 1
  %3 = alloca i32, align 4
  store i32 %0, ptr %3, align 4
  %4 = load i32, ptr %3, align 4
  %5 = call ptr @GetJoystickByDevIndex(i32 noundef %4)
  %6 = getelementptr inbounds nuw %struct.SDL_joylist_item, ptr %5, i32 0, i32 3
  call void @llvm.memcpy.p0.p0.i64(ptr align 1 %2, ptr align 8 %6, i64 16, i1 false)
  %7 = getelementptr inbounds nuw %struct.SDL_GUID, ptr %2, i32 0, i32 0
  %8 = load { i64, i64 }, ptr %7, align 1
  ret { i64, i64 } %8
}