; Function Attrs: nounwind uwtable
define internal { i64, i64 } @LINUX_JoystickGetDeviceGUID(i32 noundef %0) #0 {
.preheader.i:
  tail call void @SDL_AssertJoysticksLocked() #18
  %1 = icmp sgt i32 %0, -1
  %2 = load i32, ptr @numjoysticks, align 4
  %.not.i = icmp slt i32 %0, %2
  tail call void @llvm.assume(i1 %1)
  tail call void @llvm.assume(i1 %.not.i)
  %.09.i = load ptr, ptr @SDL_joylist, align 8
  %.not12.i = icmp eq i32 %0, 0
  br i1 %.not12.i, label %GetJoystickByDevIndex.exit, label %.lr.ph.i

.lr.ph.i:                                         ; preds = %.preheader.i, %.lr.ph.i
  %.011.i = phi ptr [ %.0.i, %.lr.ph.i ], [ %.09.i, %.preheader.i ]
  %.0610.i = phi i32 [ %3, %.lr.ph.i ], [ %0, %.preheader.i ]
  %3 = add nsw i32 %.0610.i, -1
  %4 = getelementptr inbounds nuw i8, ptr %.011.i, i64 64
  %.0.i = load ptr, ptr %4, align 8
  %5 = icmp samesign ugt i32 %.0610.i, 1
  br i1 %5, label %.lr.ph.i, label %GetJoystickByDevIndex.exit, !llvm.loop !13

GetJoystickByDevIndex.exit:                       ; preds = %.lr.ph.i, %.preheader.i
  %.07.i = phi ptr [ %.09.i, %.preheader.i ], [ %.0.i, %.lr.ph.i ]
  %6 = getelementptr inbounds nuw i8, ptr %.07.i, i64 24
  %.sroa.0.0.copyload = load i64, ptr %6, align 8
  %.sroa.2.0..sroa_idx = getelementptr inbounds nuw i8, ptr %.07.i, i64 32
  %.sroa.2.0.copyload = load i64, ptr %.sroa.2.0..sroa_idx, align 8
  %.fca.0.insert = insertvalue { i64, i64 } poison, i64 %.sroa.0.0.copyload, 0
  %.fca.1.insert = insertvalue { i64, i64 } %.fca.0.insert, i64 %.sroa.2.0.copyload, 1
  ret { i64, i64 } %.fca.1.insert
}